target datalayout = "e-m:e-p270:32:32-p271:32:32-p272:64:64-i64:64-i128:128-f80:128-n8:16:32:64-S128"
target triple = "x86_64-pc-linux-gnu"

%union.SourceSpan = type { i64 }
%struct.ParseContext_ = type { %struct.TokenData, i32, %union.SourceSpan, %union.SourceSpan, ptr, %struct.Lexer }
%struct.TokenData = type { ptr, i64, %union.anon.86 }
%union.anon.86 = type { %struct.anon.89 }
%struct.anon.89 = type { %struct.Int128_, i8 }
%struct.Int128_ = type { i64, i64 }
%struct.Lexer = type { ptr, ptr, ptr, ptr, i32, i32, ptr, ptr, ptr, %struct.TokenData, %union.SourceSpan, i32, i32 }

; Function Attrs: nounwind uwtable
define dso_local void @advance(ptr noundef %0) #0 {
  %2 = alloca ptr, align 8
  %3 = alloca i32, align 4
  %4 = alloca ptr, align 8
  store ptr %0, ptr %4, align 8
  %5 = load ptr, ptr %4, align 8
  store ptr %5, ptr %2, align 8
  store i32 189, ptr %3, align 4
  %6 = load ptr, ptr %2, align 8
  %7 = getelementptr inbounds %struct.ParseContext_, ptr %6, i32 0, i32 1
  %8 = load i32, ptr %7, align 8
  %9 = load i32, ptr %3, align 4
  %10 = icmp eq i32 %8, %9
  br i1 %10, label %11, label %12

11:                                               ; preds = %1
  br label %37

12:                                               ; preds = %1
  %13 = load ptr, ptr %4, align 8
  %14 = getelementptr inbounds %struct.ParseContext_, ptr %13, i32 0, i32 5
  %15 = getelementptr inbounds %struct.Lexer, ptr %14, i32 0, i32 11
  %16 = load i32, ptr %15, align 8
  %17 = load ptr, ptr %4, align 8
  %18 = getelementptr inbounds %struct.ParseContext_, ptr %17, i32 0, i32 1
  store i32 %16, ptr %18, align 8
  %19 = load ptr, ptr %4, align 8
  %20 = getelementptr inbounds %struct.ParseContext_, ptr %19, i32 0, i32 0
  %21 = load ptr, ptr %4, align 8
  %22 = getelementptr inbounds %struct.ParseContext_, ptr %21, i32 0, i32 5
  %23 = getelementptr inbounds %struct.Lexer, ptr %22, i32 0, i32 9
  call void @llvm.memcpy.p0.p0.i64(ptr align 8 %20, ptr align 8 %23, i64 40, i1 false)
  %24 = load ptr, ptr %4, align 8
  %25 = getelementptr inbounds %struct.ParseContext_, ptr %24, i32 0, i32 3
  %26 = load ptr, ptr %4, align 8
  %27 = getelementptr inbounds %struct.ParseContext_, ptr %26, i32 0, i32 2
  call void @llvm.memcpy.p0.p0.i64(ptr align 8 %25, ptr align 8 %27, i64 8, i1 false)
  %28 = load ptr, ptr %4, align 8
  %29 = getelementptr inbounds %struct.ParseContext_, ptr %28, i32 0, i32 2
  %30 = load ptr, ptr %4, align 8
  %31 = getelementptr inbounds %struct.ParseContext_, ptr %30, i32 0, i32 5
  %32 = getelementptr inbounds %struct.Lexer, ptr %31, i32 0, i32 10
  call void @llvm.memcpy.p0.p0.i64(ptr align 8 %29, ptr align 8 %32, i64 8, i1 false)
  %33 = load ptr, ptr %4, align 8
  %34 = getelementptr inbounds %struct.ParseContext_, ptr %33, i32 0, i32 5
  %35 = call zeroext i1 @lexer_next_token(ptr noundef %34)
  br i1 %35, label %37, label %36

36:                                               ; preds = %12
  call void @exit_compiler(i32 noundef 1) #9
  unreachable

37:                                               ; preds = %12, %11
  ret void
}