; Function Attrs: nounwind uwtable
define dso_local void @advance(ptr noundef %0) local_unnamed_addr #0 {
  %2 = getelementptr inbounds i8, ptr %0, i64 40
  %3 = load i32, ptr %2, align 8
  %4 = icmp eq i32 %3, 189
  br i1 %4, label %17, label %5

5:                                                ; preds = %1
  %6 = getelementptr inbounds i8, ptr %0, i64 72
  %7 = getelementptr inbounds i8, ptr %0, i64 184
  %8 = load i32, ptr %7, align 8
  store i32 %8, ptr %2, align 8
  %9 = getelementptr inbounds i8, ptr %0, i64 136
  tail call void @llvm.memcpy.p0.p0.i64(ptr noundef nonnull align 8 dereferenceable(40) %0, ptr noundef nonnull align 8 dereferenceable(40) %9, i64 40, i1 false)
  %10 = getelementptr inbounds i8, ptr %0, i64 56
  %11 = getelementptr inbounds i8, ptr %0, i64 48
  %12 = load i64, ptr %11, align 8
  store i64 %12, ptr %10, align 8
  %13 = getelementptr inbounds i8, ptr %0, i64 176
  %14 = load i64, ptr %13, align 8
  store i64 %14, ptr %11, align 8
  %15 = tail call zeroext i1 @lexer_next_token(ptr noundef nonnull %6) #10
  br i1 %15, label %17, label %16

16:                                               ; preds = %5
  tail call void @exit_compiler(i32 noundef 1) #11
  unreachable

17:                                               ; preds = %1, %5
  ret void
}